Certificate:
    Data:
        Version: 3 (0x2)
        Serial Number: 4096 (0x1000)
    Signature Algorithm: sha1WithRSAEncryption
        Issuer: C=US, O=localdomain, CN=localhost.localdomain.34193
        Validity
            Not Before: Oct  7 10:59:51 2016 GMT
            Not After : Oct  6 10:59:51 2026 GMT
        Subject: C=US, O=localdomain, CN=localhost.localdomain.34193
        Subject Public Key Info:
            Public Key Algorithm: rsaEncryption
                Public-Key: (2048 bit)
                Modulus:
                    00:a4:67:1d:dd:08:2a:c5:e4:0d:79:3a:60:4c:49:
                    25:3d:84:fd:f9:ec:eb:10:ed:61:ef:cc:e8:5a:53:
                    4f:d1:37:63:20:60:f2:74:a4:ab:d6:64:8f:8b:cd:
                    86:29:3d:7c:ed:bf:13:c5:06:fc:36:34:fc:8d:bb:
                    5a:20:33:ad:ea:16:91:37:8f:bd:d9:f5:27:32:db:
                    19:4b:91:7f:96:b8:81:5f:51:54:8d:5c:40:d7:29:
                    63:ba:ea:43:b1:a7:3a:13:a8:cf:2a:df:a7:51:df:
                    5e:aa:1c:5b:23:8f:fe:7e:6e:90:c7:1b:99:69:65:
                    dd:81:56:50:be:32:2e:94:d2:26:f7:ff:10:38:5c:
                    60:42:e3:e4:86:4f:dd:b9:ad:14:06:02:6e:c9:d0:
                    e9:ff:c5:7f:27:05:41:c8:0e:bf:07:ef:3e:47:cc:
                    3c:ad:cf:be:cf:0e:23:8f:f5:91:e2:85:95:3b:b3:
                    9e:cf:b3:26:52:04:78:5f:ef:17:ca:12:8d:e2:9f:
                    83:26:f7:a2:52:dd:ec:c9:51:c5:7a:83:19:f1:75:
                    6c:fd:e3:75:ea:35:ad:f7:66:64:fc:a4:66:c2:57:
                    44:1a:cd:a6:d8:eb:29:4e:9d:77:31:68:b2:85:ea:
                    02:78:bd:df:3e:b1:e1:9c:b1:1e:0b:b3:cd:cc:c9:
                    d3:05
                Exponent: 65537 (0x10001)
        X509v3 extensions:
            X509v3 Subject Key Identifier: 
                5C:3A:15:3B:EA:C0:A3:BD:A4:BD:FB:54:8F:76:C6:50:E0:27:90:36
            X509v3 Authority Key Identifier: 
                keyid:5C:3A:15:3B:EA:C0:A3:BD:A4:BD:FB:54:8F:76:C6:50:E0:27:90:36
                DirName:/C=US/O=localdomain/CN=localhost.localdomain.34193
                serial:10:00

            X509v3 Basic Constraints: critical
                CA:TRUE
            X509v3 Key Usage: critical
                Certificate Sign, CRL Sign
    Signature Algorithm: sha1WithRSAEncryption
         17:18:32:55:22:eb:d2:a6:fc:48:f5:73:06:42:3f:7f:6b:df:
         0f:01:b3:76:b6:77:71:2b:92:1a:03:e6:63:37:4f:6a:94:c7:
         36:aa:2c:60:7d:5a:c7:62:be:ee:87:81:0c:6b:62:3f:91:56:
         df:52:4f:75:f0:5b:21:37:ef:dd:33:e8:f0:bf:51:5f:2f:8c:
         5c:9c:de:f1:63:24:7d:b4:62:3a:c7:6d:c2:9d:9c:ce:01:0d:
         b7:72:b8:0d:57:8c:a1:1d:52:cb:e9:cf:a6:1f:a0:8a:a1:e5:
         fc:94:93:88:73:f8:98:77:7f:f8:f0:2a:21:3f:6f:fd:65:65:
         4f:4e:b8:30:fc:63:2a:3d:a3:75:12:b3:27:03:8d:5d:4b:e7:
         8d:1e:e8:ad:0b:ec:25:75:3d:9f:46:27:de:86:f5:45:4d:37:
         f8:8d:d5:a1:0d:e5:14:fa:7d:1e:59:15:79:e0:3f:f6:b9:28:
         34:36:fe:d6:29:ed:90:c5:e9:38:21:bc:15:22:e9:33:3b:d9:
         74:df:77:a0:92:55:c7:f5:b9:de:8f:1f:c9:f2:42:71:f4:d5:
         90:35:59:bc:6f:b1:bb:40:30:fe:5f:06:10:6d:fc:41:8b:ff:
         78:e0:94:99:bb:11:44:bb:3a:c4:54:9d:1e:5e:2f:70:2e:a5:
         ce:84:c3:a3
-----BEGIN CERTIFICATE-----
MIIDxjCCAq6gAwIBAgICEAAwDQYJKoZIhvcNAQEFBQAwSTELMAkGA1UEBhMCVVMx
FDASBgNVBAoTC2xvY2FsZG9tYWluMSQwIgYDVQQDExtsb2NhbGhvc3QubG9jYWxk
b21haW4uMzQxOTMwHhcNMTYxMDA3MTA1OTUxWhcNMjYxMDA2MTA1OTUxWjBJMQsw
CQYDVQQGEwJVUzEUMBIGA1UEChMLbG9jYWxkb21haW4xJDAiBgNVBAMTG2xvY2Fs
aG9zdC5sb2NhbGRvbWFpbi4zNDE5MzCCASIwDQYJKoZIhvcNAQEBBQADggEPADCC
AQoCggEBAKRnHd0IKsXkDXk6YExJJT2E/fns6xDtYe/M6FpTT9E3YyBg8nSkq9Zk
j4vNhik9fO2/E8UG/DY0/I27WiAzreoWkTePvdn1JzLbGUuRf5a4gV9RVI1cQNcp
Y7rqQ7GnOhOozyrfp1HfXqocWyOP/n5ukMcbmWll3YFWUL4yLpTSJvf/EDhcYELj
5IZP3bmtFAYCbsnQ6f/FfycFQcgOvwfvPkfMPK3Pvs8OI4/1keKFlTuzns+zJlIE
eF/vF8oSjeKfgyb3olLd7MlRxXqDGfF1bP3jdeo1rfdmZPykZsJXRBrNptjrKU6d
dzFosoXqAni93z6x4ZyxHguzzczJ0wUCAwEAAaOBtzCBtDAdBgNVHQ4EFgQUXDoV
O+rAo72kvftUj3bGUOAnkDYwcgYDVR0jBGswaYAUXDoVO+rAo72kvftUj3bGUOAn
kDahTaRLMEkxCzAJBgNVBAYTAlVTMRQwEgYDVQQKEwtsb2NhbGRvbWFpbjEkMCIG
A1UEAxMbbG9jYWxob3N0LmxvY2FsZG9tYWluLjM0MTkzggIQADAPBgNVHRMBAf8E
BTADAQH/MA4GA1UdDwEB/wQEAwIBBjANBgkqhkiG9w0BAQUFAAOCAQEAFxgyVSLr
0qb8SPVzBkI/f2vfDwGzdrZ3cSuSGgPmYzdPapTHNqosYH1ax2K+7oeBDGtiP5FW
31JPdfBbITfv3TPo8L9RXy+MXJze8WMkfbRiOsdtwp2czgENt3K4DVeMoR1Sy+nP
ph+giqHl/JSTiHP4mHd/+PAqIT9v/WVlT064MPxjKj2jdRKzJwONXUvnjR7orQvs
JXU9n0Yn3ob1RU03+I3VoQ3lFPp9HlkVeeA/9rkoNDb+1intkMXpOCG8FSLpMzvZ
dN93oJJVx/W53o8fyfJCcfTVkDVZvG+xu0Aw/l8GEG38QYv/eOCUmbsRRLs6xFSd
Hl4vcC6lzoTDow==
-----END CERTIFICATE-----
